target datalayout = "e-m:e-p270:32:32-p271:32:32-p272:64:64-i64:64-i128:128-f80:128-n8:16:32:64-S128"
target triple = "x86_64-pc-linux-gnu"

%struct.expert_field = type { i32, i32 }
%struct._spdy_control_frame_info_t = type { i8, i16, i16, i8, i32 }

@hf_spdy_streamid = internal global i32 0, align 4
@hf_spdy_rst_stream_status = internal global i32 0, align 4
@ei_spdy_invalid_rst_stream = internal global %struct.expert_field zeroinitializer, align 4
@.str.172 = private unnamed_addr constant [13 x i8] c", Stream: %u\00", align 1
@.str.173 = private unnamed_addr constant [39 x i8] c"Invalid status code for RST_STREAM: %u\00", align 1
@.str.174 = private unnamed_addr constant [13 x i8] c"Unknown (%d)\00", align 1
@.str.175 = private unnamed_addr constant [13 x i8] c", Status: %s\00", align 1

; Function Attrs: null_pointer_is_valid sspstrong uwtable
define internal void @dissect_spdy_stream_id_field(ptr noundef %0, i32 noundef %1, ptr noundef %2, ptr noundef %3, i32 noundef %4) #0 {
  %6 = alloca ptr, align 8
  %7 = alloca i32, align 4
  %8 = alloca ptr, align 8
  %9 = alloca ptr, align 8
  %10 = alloca i32, align 4
  %11 = alloca i32, align 4
  store ptr %0, ptr %6, align 8
  store i32 %1, ptr %7, align 4
  store ptr %2, ptr %8, align 8
  store ptr %3, ptr %9, align 8
  store i32 %4, ptr %10, align 4
  call void @llvm.lifetime.start.p0(i64 4, ptr %11) #11
  %12 = load ptr, ptr %6, align 8
  %13 = load i32, ptr %7, align 4
  %14 = call i32 @tvb_get_ntohl(ptr noundef %12, i32 noundef %13)
  %15 = and i32 %14, 2147483647
  store i32 %15, ptr %11, align 4
  %16 = load ptr, ptr %9, align 8
  %17 = load i32, ptr %10, align 4
  %18 = load ptr, ptr %6, align 8
  %19 = load i32, ptr %7, align 4
  %20 = call ptr @proto_tree_add_item(ptr noundef %16, i32 noundef %17, ptr noundef %18, i32 noundef %19, i32 noundef 4, i32 noundef 0)
  %21 = load i32, ptr %10, align 4
  %22 = load i32, ptr @hf_spdy_streamid, align 4
  %23 = icmp eq i32 %21, %22
  br i1 %23, label %24, label %27

24:                                               ; preds = %5
  %25 = load ptr, ptr %9, align 8
  %26 = load i32, ptr %11, align 4
  call void (ptr, ptr, ...) @proto_item_append_text(ptr noundef %25, ptr noundef @.str.172, i32 noundef %26)
  br label %27

27:                                               ; preds = %24, %5
  call void @llvm.lifetime.end.p0(i64 4, ptr %11) #11
  ret void
}

; Function Attrs: null_pointer_is_valid sspstrong uwtable
define internal i32 @dissect_spdy_rst_stream_payload(ptr noundef %0, i32 noundef %1, ptr noundef %2, ptr noundef %3, ptr noundef %4) #0 {
  %6 = alloca ptr, align 8
  %7 = alloca i32, align 4
  %8 = alloca ptr, align 8
  %9 = alloca ptr, align 8
  %10 = alloca ptr, align 8
  %11 = alloca i32, align 4
  %12 = alloca ptr, align 8
  %13 = alloca ptr, align 8
  store ptr %0, ptr %6, align 8
  store i32 %1, ptr %7, align 4
  store ptr %2, ptr %8, align 8
  store ptr %3, ptr %9, align 8
  store ptr %4, ptr %10, align 8
  call void @llvm.lifetime.start.p0(i64 4, ptr %11) #11
  call void @llvm.lifetime.start.p0(i64 8, ptr %12) #11
  call void @llvm.lifetime.start.p0(i64 8, ptr %13) #11
  %14 = load ptr, ptr %6, align 8
  %15 = load i32, ptr %7, align 4
  %16 = load ptr, ptr %8, align 8
  %17 = load ptr, ptr %9, align 8
  %18 = load i32, ptr @hf_spdy_streamid, align 4
  call void @dissect_spdy_stream_id_field(ptr noundef %14, i32 noundef %15, ptr noundef %16, ptr noundef %17, i32 noundef %18)
  %19 = load i32, ptr %7, align 4
  %20 = add i32 %19, 4
  store i32 %20, ptr %7, align 4
  %21 = load ptr, ptr %9, align 8
  %22 = load i32, ptr @hf_spdy_rst_stream_status, align 4
  %23 = load ptr, ptr %6, align 8
  %24 = load i32, ptr %7, align 4
  %25 = call ptr @proto_tree_add_item(ptr noundef %21, i32 noundef %22, ptr noundef %23, i32 noundef %24, i32 noundef 4, i32 noundef 0)
  store ptr %25, ptr %12, align 8
  %26 = load ptr, ptr %6, align 8
  %27 = load i32, ptr %7, align 4
  %28 = call i32 @tvb_get_ntohl(ptr noundef %26, i32 noundef %27)
  store i32 %28, ptr %11, align 4
  %29 = load i32, ptr %11, align 4
  %30 = call ptr @try_val_to_str(i32 noundef %29, ptr noundef @rst_stream_status_names)
  %31 = icmp eq ptr %30, null
  br i1 %31, label %32, label %37

32:                                               ; preds = %5
  %33 = load ptr, ptr %8, align 8
  %34 = load ptr, ptr %12, align 8
  %35 = load i32, ptr %11, align 4
  %36 = call ptr (ptr, ptr, ptr, ptr, ...) @expert_add_info_format(ptr noundef %33, ptr noundef %34, ptr noundef @ei_spdy_invalid_rst_stream, ptr noundef @.str.173, i32 noundef %35)
  br label %37

37:                                               ; preds = %32, %5
  %38 = load i32, ptr %11, align 4
  %39 = call ptr @val_to_str(i32 noundef %38, ptr noundef @rst_stream_status_names, ptr noundef @.str.174)
  store ptr %39, ptr %13, align 8
  %40 = load ptr, ptr %9, align 8
  %41 = load ptr, ptr %13, align 8
  call void (ptr, ptr, ...) @proto_item_append_text(ptr noundef %40, ptr noundef @.str.175, ptr noundef %41)
  %42 = load ptr, ptr %10, align 8
  %43 = getelementptr inbounds nuw %struct._spdy_control_frame_info_t, ptr %42, i32 0, i32 4
  %44 = load i32, ptr %43, align 4
  call void @llvm.lifetime.end.p0(i64 8, ptr %13) #11
  call void @llvm.lifetime.end.p0(i64 8, ptr %12) #11
  call void @llvm.lifetime.end.p0(i64 4, ptr %11) #11
  ret i32 %44
}