; Function Attrs: null_pointer_is_valid sspstrong uwtable
define internal fastcc void @dissect_spdy_rst_stream_payload(ptr noundef %0, ptr noundef %1, ptr noundef %2, ptr noundef readonly captures(none) %3) unnamed_addr #0 {
  %5 = load i32, ptr @hf_spdy_streamid, align 4
  %6 = tail call i32 @tvb_get_ntohl(ptr noundef %0, i32 noundef 8)
  %7 = tail call ptr @proto_tree_add_item(ptr noundef %2, i32 noundef %5, ptr noundef %0, i32 noundef 8, i32 noundef 4, i32 noundef 0)
  %8 = load i32, ptr @hf_spdy_streamid, align 4
  %9 = icmp eq i32 %5, %8
  br i1 %9, label %10, label %dissect_spdy_stream_id_field.exit

10:                                               ; preds = %4
  %11 = and i32 %6, 2147483647
  tail call void (ptr, ptr, ...) @proto_item_append_text(ptr noundef %2, ptr noundef nonnull @.str.172, i32 noundef %11)
  br label %dissect_spdy_stream_id_field.exit

dissect_spdy_stream_id_field.exit:                ; preds = %4, %10
  %12 = load i32, ptr @hf_spdy_rst_stream_status, align 4
  %13 = tail call ptr @proto_tree_add_item(ptr noundef %2, i32 noundef %12, ptr noundef %0, i32 noundef 12, i32 noundef 4, i32 noundef 0)
  %14 = tail call i32 @tvb_get_ntohl(ptr noundef %0, i32 noundef 12)
  %15 = tail call ptr @try_val_to_str(i32 noundef %14, ptr noundef nonnull @rst_stream_status_names)
  %16 = icmp eq ptr %15, null
  br i1 %16, label %17, label %19

17:                                               ; preds = %dissect_spdy_stream_id_field.exit
  %18 = tail call ptr (ptr, ptr, ptr, ptr, ...) @expert_add_info_format(ptr noundef %1, ptr noundef %13, ptr noundef nonnull @ei_spdy_invalid_rst_stream, ptr noundef nonnull @.str.173, i32 noundef %14)
  br label %19

19:                                               ; preds = %17, %dissect_spdy_stream_id_field.exit
  %20 = tail call ptr @val_to_str(i32 noundef %14, ptr noundef nonnull @rst_stream_status_names, ptr noundef nonnull @.str.174)
  tail call void (ptr, ptr, ...) @proto_item_append_text(ptr noundef %2, ptr noundef nonnull @.str.175, ptr noundef %20)
  ret void
}